(dp1
S'output'
p2
S"<type 'exceptions.NameError'> name 'posts' is not defined"
p3
sS'layer'
p4
S'/Users/leahlangford/Desktop/CMPS 183/web2py/applications/inCrowd/views/default/index.html'
p5
sS'code'
p6
S'response.write(\'<!DOCTYPE html>\\n<!--[if (gt IE 9)|!(IE)]><!--> <html class="no-js" lang="\', escape=False)\nresponse.write(T.accepted_language or \'en\')\nresponse.write(\'"> <!--<![endif]-->\\n  <head>\\n    <meta charset="utf-8">\\n    <!-- www.phpied.com/conditional-comments-block-downloads/ -->\\n    <!-- Always force latest IE rendering engine\\n         (even in intranet) & Chrome Frame\\n         Remove this if you use the .htaccess -->\\n    <meta http-equiv="X-UA-Compatible" content="IE=edge\', escape=False)\nresponse.write(not request.is_local and \',chrome=1\' or \'\')\nresponse.write(\'">\\n    <!--  Mobile Viewport Fix\\n          j.mp/mobileviewport & davidbcalhoun.com/2010/viewport-metatag\\n          device-width: Occupy full width of the screen in its current orientation\\n          initial-scale = 1.0 retains dimensions instead of zooming out if page height > device height\\n          user-scalable = yes allows the user to zoom in -->\\n    <meta name="viewport" content="width=device-width, initial-scale=1.0">\\n    <title>\', escape=False)\nresponse.write(response.title or request.application)\nresponse.write(\'</title>\\n    <!-- http://dev.w3.org/html5/markup/meta.name.html -->\\n    <meta name="application-name" content="\', escape=False)\nresponse.write(request.application)\nresponse.write(\'">\\n    <!-- Speaking of Google, don\\\'t forget to set your site up:\\n         http://google.com/webmasters -->\\n    <meta name="google-site-verification" content="">\\n    <!-- include stylesheets -->\\n    <link rel="stylesheet" href="\', escape=False)\nresponse.write(URL(\'static\',\'css/bootstrap.min.css\'))\nresponse.write(\'"/>\\n    <link rel="stylesheet" href="\', escape=False)\nresponse.write(URL(\'static\',\'css/web2py-bootstrap3.css\'))\nresponse.write(\'"/>\\n    <link rel="stylesheet" href="\', escape=False)\nresponse.write(URL(\'static\',\'css/myapp.css\'))\nresponse.write(\'"/>\\n    <link rel="stylesheet" href="\', escape=False)\nresponse.write(URL(\'static\', \'font-awesome-4.6.3/css/font-awesome.min.css\'))\nresponse.write(\'"/>\\n\\n    <link rel="shortcut icon" href="\', escape=False)\nresponse.write(URL(\'static\',\'images/favicon.ico\'))\nresponse.write(\'" type="image/x-icon">\\n    <link rel="apple-touch-icon" href="\', escape=False)\nresponse.write(URL(\'static\',\'images/favicon.png\'))\nresponse.write(\'">\\n    <!-- All JavaScript at the bottom, except for Modernizr which enables\\n         HTML5 elements & feature detects -->\\n    <script src="\', escape=False)\nresponse.write(URL(\'static\',\'js/modernizr-2.8.3.min.js\'))\nresponse.write(\'"></script>\\n    <!--[if lt IE 9]>\\n        <script src="\', escape=False)\nresponse.write(URL(\'static\',\'js/respond-1.4.2.min.js\'))\nresponse.write(\'"></script>\\n        <![endif]-->\\n    <!-- Favicons -->\\n    \', escape=False)\nresponse.write(\'<script type="text/javascript"><!--\\n    // These variables are used by the web2py_ajax_init function in web2py_ajax.js (which is loaded below).\\n    var w2p_ajax_confirm_message = "\', escape=False)\nresponse.write(T(\'Are you sure you want to delete this object?\'))\nresponse.write(\'";\\n    var w2p_ajax_disable_with_message = "\', escape=False)\nresponse.write(T(\'Working...\'))\nresponse.write(\'";\\n    var w2p_ajax_date_format = "\', escape=False)\nresponse.write(T(\'%Y-%m-%d\'))\nresponse.write(\'";\\n    var w2p_ajax_datetime_format = "\', escape=False)\nresponse.write(T(\'%Y-%m-%d %H:%M:%S\'))\nresponse.write(\'";\\n    var ajax_error_500 = \\\'\', escape=False)\nresponse.write(T.M(\'An error occured, please [[reload %s]] the page\') % URL(args=request.args, vars=request.get_vars))\nresponse.write("\'\\n    //--></script>\\n", escape=False)\nresponse.files.insert(0,URL(\'static\',\'js/jquery.js\'))\nresponse.files.insert(1,URL(\'static\',\'css/calendar.css\'))\nresponse.files.insert(2,URL(\'static\',\'js/calendar.js\'))\nresponse.files.insert(3,URL(\'static\',\'js/web2py.js\'))\nresponse.include_meta()\nresponse.include_files()\nresponse.write(\'\\n\', escape=False)\nresponse.write(\' <!-- this includes jquery.js, calendar.js/.css and web2py.js -->\\n    \', escape=False)\nresponse.write(\'\\n    \', escape=False)\n# using sidebars need to know what sidebar you want to use\nmc0 = \'col-md-12\'\nmc1 = \'col-md-9\'\nmc2 = \'col-md-6\'\nleft_sidebar_enabled = globals().get(\'left_sidebar_enabled\', False)\nright_sidebar_enabled = globals().get(\'right_sidebar_enabled\', False)\nmiddle_column = {0: mc0, 1: mc1, 2: mc2}[\n(left_sidebar_enabled and 1 or 0)+(right_sidebar_enabled and 1 or 0)]\nresponse.write(\'\\n  </head>\\n  <body>\\n    <!--[if lt IE 8]><p class="browserupgrade">You are using an <strong>outdated</strong> browser. Please <a href="http://browsehappy.com/">upgrade your browser</a> to improve your experience.</p><![endif]-->\\n    <div class="w2p_flash alert alert-dismissable">\', escape=False)\nresponse.write(response.flash or \'\')\nresponse.write(\'</div>\\n    <!-- Navbar ======================================= -->\\n    <nav class="navbar navbar-default navbar-fixed-top" role="navigation">\\n      <div class="container-fluid">\\n        <div class="navbar-header">\\n          <button type="button" class="navbar-toggle" data-toggle="collapse" data-target=".navbar-collapse">\\n            <span class="sr-only">Toggle navigation</span>\\n            <span class="icon-bar"></span>\\n            <span class="icon-bar"></span>\\n            <span class="icon-bar"></span>\\n          </button>\\n          \', escape=False)\nresponse.write(response.logo or \'\')\nresponse.write(\'\\n        </div>\\n        <div class="collapse navbar-collapse navbar-ex1-collapse">\\n          <ul class="nav navbar-nav navbar-right">\\n            \', escape=False)\nresponse.write(\'auth\' in globals() and auth.navbar(\'Welcome\',mode=\'dropdown\') or \'\')\nresponse.write(\'\\n          </ul>\\n          \', escape=False)\nif response.menu:\n    response.write(\'\\n          \', escape=False)\n    response.write(MENU(response.menu, _class=\'nav navbar-nav\',li_class=\'dropdown\',ul_class=\'dropdown-menu\'))\n    response.write(\'\\n          \', escape=False)\n    pass\nresponse.write(\'\\n        </div>\\n      </div>\\n    </nav>\\n    <!-- Masthead ===================================== -->\\n    \', escape=False)\nresponse.write(\'\\n    \', escape=False)\nresponse.write(\'\\n    <!-- Main ========================================= -->\\n    <!-- Begin page content -->\\n    <div class="container-fluid main-container">\\n      \', escape=False)\nif left_sidebar_enabled:\n    response.write(\'\\n        <div class="col-md-3 left-sidebar">\\n            \', escape=False)\n    response.write(\'\\n            <h3>Left Sidebar</h3>\\n            <p></p>\\n            \', escape=False)\n    response.write(\'\\n        </div>\\n      \', escape=False)\n    pass\nresponse.write(\'\\n\\n      <div class="\', escape=False)\nresponse.write(middle_column)\nresponse.write(\'">\\n        \', escape=False)\nresponse.write(\'\\n        \', escape=False)\nresponse.write(\'\\n\\n\\n<!-- Styling and implementation to draw calender -->\\n <style type="text/css" >\\n         html, body { margin: 0; padding: 0 }\\n         body { background-color: #fff; }\\n         #container { margin: 3em auto 0 3em; padding-bottom: 3em; background-color: #fff; }\\n         #month { border-collapse: collapse; margin-left: 2em; }\\n         #month th, #month td { border: 1px solid #000; }\\n         #month thead { background-color:#9c9; }\\n         #month td { width: 7em; height: 7em; padding: .2em; vertical-align: top; overflow: auto; }\\n         td .day { width: 7em; height: 6em; overflow:auto; margin-top: 0; }\\n         #month tbody .weekend { background-color:#ded; }\\n         #month tbody .next, #month tbody .previous { background-color:#ddd; }\\n         .rtop { display:block; background: #660006; }\\n         .rtop * { display: block; height: 1px; overflow: hidden; background:#fff; }\\n         .r1{margin: 0 0 0 5px}\\n         .r2{margin: 0 0 0 3px}\\n         .r3{margin: 0 0 0 2px}\\n         .r4{margin: 0 0 0 1px; height: 2px}\\n         #container h1 { margin: 0 0 .5em .5em; font: 2em Arial, Helvetica, sans-serif; color: #633166; }\\n         #month th { font: 1em bold Arial, Helvetica, sans-serif; }\\n         p {margin-top: 0; }\\n </style >\\n\\n<div id="container" >\\n    <b class="rtop" ><b class="r1" ></b > <b class="r2" ></b ><b class="r3" ></b > <b class="r4" ></b ></b >\\n</div>\\n\\n\', escape=False)\nresponse.write(todayMonth)\nresponse.write(\'\\n\', escape=False)\nresponse.write(todayYear)\nresponse.write(\'\\n    <table id="month">\\n        <thead>\\n            <tr>\\n                <th class="weekend"> Sunday </th >\\n                <th > Monday </th >\\n                <th > Tuesday </th >\\n                <th > Wednesday </th >\\n                <th > Thursday </th >\\n                <th >Friday</th >\\n                <th class="weekend" > Saturday </th >\\n            </tr>\\n        </thead>\\n        <tbody>\\n            \', escape=False)\nfor w in range(0,nWeeks):\n    response.write(\'\\n                    \', escape=False)\n    week=month[w]\n    response.write(\'\\n\\n                <tr>\\n                \', escape=False)\n    for x in xrange(0,7):\n        response.write(\'\\n                        \', escape=False)\n        day=week[x]\n        response.write(\'\\n                        \', escape=False)\n        if x==5 or x==6:\n            response.write(\'\\n                            \', escape=False)\n            classtype = \'weekend\'\n            response.write(\'\\n                        \', escape=False)\n        else:\n            response.write(\'\\n                            \', escape=False)\n            classtype = \'day\'\n            response.write(\'\\n                        \', escape=False)\n            pass\n        response.write(\'\\n\\n                        \', escape=False)\n        if day == 0:\n            response.write(\'\\n                            \', escape=False)\n            classtype = \'previous\'\n            response.write(\'\\n                            <td class="classtype"></td>\\n                        \', escape=False)\n        elif day == todayDay:\n            response.write(\'\\n                             <td class="classtype">\\n                                 <strong>\', escape=False)\n            response.write(day)\n            response.write(\'</strong>\\n                                 \', escape=False)\n            for cont in dateContent:\n                response.write(\'\\n                                    \', escape=False)\n                if cont.dateDay == day:\n                    response.write(\'\\n                                        \', escape=False)\n                    response.write(cont.dateEvent)\n                    response.write(\'\\n                                    \', escape=False)\n                    pass\n                response.write(\'\\n                                 \', escape=False)\n                pass\n            response.write(\'\\n                                 <a href="\', escape=False)\n            response.write(URL(\'default\', \'add\', args=[day]))\n            response.write(\'">\\n                                    <i class="fa fa-pencil"></i> Add\\n                                 </a>\\n                                 <div class="classtype"></div>\\n                             </td>\\n                        \', escape=False)\n        else:\n            response.write(\'\\n                            <td class="classtype">\', escape=False)\n            response.write(day)\n            response.write(\'\\n                                 \', escape=False)\n            for cont in dateContent:\n                response.write(\'\\n                                    \', escape=False)\n                if cont.dateDay == day:\n                    response.write(\'\\n                                        \', escape=False)\n                    response.write(cont.dateEvent)\n                    response.write(\'\\n                                    \', escape=False)\n                    pass\n                response.write(\'\\n                                 \', escape=False)\n                pass\n            response.write(\'\\n                                <div class="classtype"></div>\\n                                 <a href="\', escape=False)\n            response.write(URL(\'default\', \'add\', args=[day]))\n            response.write(\'">\\n                                    <i class="fa fa-pencil"></i> Add\\n                                 </a>\\n                            </td>\\n                        \', escape=False)\n            pass\n        response.write(\'\\n\\n                \', escape=False)\n        pass\n    response.write(\'\\n            \', escape=False)\n    pass\nresponse.write(\'\\n            </tr>\\n        </tbody>\\n </table>\\n <!-- End of Styling and implementation to draw calender -->\\n\\n\\n<div class="post_listing center">\\n\', escape=False)\nif auth.user_id:\n    response.write(\'\\n\\n    <div class="post_list_header text-right">\\n        <a href="\', escape=False)\n    response.write(URL(\'default\', \'edit_internship\'))\n    response.write(\'" class="btn btn-warning">\\n            <i class="fa fa-plus"></i> Add Internship\\n        </a>\\n    </div>\\n\\n\', escape=False)\nelse:\n    response.write(\'\\n\\n    <div class="post_list_header text-right">\\n        <a href="\', escape=False)\n    response.write(URL(\'default\', \'user\', args=[\'login\']))\n    response.write(\'" class="btn btn-warning">Log In</a>\\n    </div>\\n\\n\\n\\n\', escape=False)\n    pass\nresponse.write(\'\\n    \\n    <div class="post_list" >\\n    <h1> Upcoming Internships </h1>\\n    \', escape=False)\nfor p in posts:\n    response.write(\'\\n        <div class="post text-left" >\\n            <!-- Here goes the code to display an individual post. The code below is just a placeholder. -->\\n            <p>\', escape=False)\n    response.write(p.title)\n    response.write(\'</p>\\n            <p>\', escape=False)\n    response.write(p.organization)\n    response.write(\'</p>\\n\\n            <a href="\', escape=False)\n    response.write(URL(\'default\', \'view_internship\', args=[p.id]))\n    response.write(\'" class = "post_title">\\n                   <i class="fa fa-pencil-square-o" aria-hidden="true">View Internship</i>\\n            </a>\\n            <br>\\n            \\n\\n\\n\\n            \', escape=False)\n    if auth.user_id and p.uploader == auth.user.email:\n        response.write(\'\\n\\n               <a href="\', escape=False)\n        response.write(URL(\'default\', \'edit_internship\', args=[p.id]))\n        response.write(\'" class = "post_title">\\n                   <i class="fa fa-pencil-square-o" aria-hidden="true">Edit Your Internship Info</i>\\n               </a>\\n            \', escape=False)\n        pass\n    response.write(\'\\n        </div>\\n    \', escape=False)\n    pass\nresponse.write(\'\\n\\n    </div>\\n\\n    <div class="fav_list" >\\n    <h1> Starred Internships </h1>\\n    \', escape=False)\nfor p in favs:\n    response.write(\'\\n        <div class="post text-left" >\\n            <!-- Here goes the code to display an individual post. The code below is just a placeholder. -->\\n            <p>\', escape=False)\n    response.write(p.title)\n    response.write(\'</p>\\n            <p>\', escape=False)\n    response.write(p.organization)\n    response.write(\'</p>\\n\\n            <a href="\', escape=False)\n    response.write(URL(\'default\', \'view_internship\', args=[p.id]))\n    response.write(\'" class = "post_title">\\n                   <i class="fa fa-pencil-square-o" aria-hidden="true">View Internship</i>\\n            </a>\\n            \', escape=False)\n    response.write(A(\'Add to Favorites\',_class="fa fa-star", callback=URL(\'default\', \'add_fav\', args=[p.id])))\n    response.write(\'\\n\\n\\n            \', escape=False)\n    if auth.user_id and p.uploader == auth.user.email:\n        response.write(\'\\n\\n               <a href="\', escape=False)\n        response.write(URL(\'default\', \'edit_internship\', args=[p.id]))\n        response.write(\'" class = "post_title">\\n                   <i class="fa fa-pencil-square-o" aria-hidden="true">Edit Your Internship Info</i>\\n               </a>\\n            \', escape=False)\n        pass\n    response.write(\'\\n        </div>\\n    \', escape=False)\n    pass\nresponse.write(\'\\n\\n    </div>\\n\\n</div>\\n\', escape=False)\nresponse.write(\'\\n        \', escape=False)\nresponse.write(\'\\n      </div>\\n\\n      \', escape=False)\nif right_sidebar_enabled:\n    response.write(\'\\n        <div class="col-md-3">\\n            \', escape=False)\n    response.write(\'\\n            <h3>Right Sidebar</h3>\\n            <p></p>\\n            \', escape=False)\n    response.write(\'\\n        </div>\\n      \', escape=False)\n    pass\nresponse.write(\'\\n\\n    </div>\\n\\n    \', escape=False)\nresponse.write(\' <!-- this is default footer -->\\n    <footer class="footer">\\n      <div class="container-fluid">\\n        <div class="copyright pull-left">\', escape=False)\nresponse.write(T(\'Copyright\'))\nresponse.write(\' &#169; \', escape=False)\nresponse.write(request.now.year)\nresponse.write(\'</div>\\n          <div id="poweredBy" class="pull-right">\\n            \', escape=False)\nresponse.write(T(\'Powered by\'))\nresponse.write(\'\\n            <a href="http://www.web2py.com/">web2py</a>\\n          </div>\\n      </div>\\n    </footer>\\n    \', escape=False)\nresponse.write(\'\\n    <!-- The javascript =============================== -->\\n    <script src="\', escape=False)\nresponse.write(URL(\'static\',\'js/bootstrap.min.js\'))\nresponse.write(\'"></script>\\n    <script src="\', escape=False)\nresponse.write(URL(\'static\',\'js/web2py-bootstrap3.js\'))\nresponse.write(\'"></script>\\n    \', escape=False)\nresponse.write(\'\\n    \', escape=False)\nif response.google_analytics_id:\n    response.write(\'\\n    <!-- Analytics ==================================== -->\\n    <script src="\', escape=False)\n    response.write(URL(\'static\',\'js/analytics.min.js\'))\n    response.write(\'"></script>\\n    <script type="text/javascript">\\n      analytics.initialize({\\n      \\\'Google Analytics\\\':{trackingId:\\\'\', escape=False)\n    response.write(response.google_analytics_id)\n    response.write("\'}\\n      });\\n    </script>\\n    ", escape=False)\n    pass\nresponse.write(\'\\n    <!-- Share ============================y============ -->\\n    <script src="\', escape=False)\nresponse.write(URL(\'static\',\'js/share.js\',vars=dict(static=URL(\'static\',\'images\'))))\nresponse.write(\'"></script>\\n  </body>\\n</html>\\n\', escape=False)'
p7
sS'snapshot'
p8
(dp9
S'exception'
p10
(dp11
S'__hash__'
p12
S"<method-wrapper '__hash__' of exceptions.NameError object>"
p13
sS'__setattr__'
p14
S"<method-wrapper '__setattr__' of exceptions.NameError object>"
p15
sS'__reduce_ex__'
p16
S'<built-in method __reduce_ex__ of exceptions.NameError object>'
p17
sS'__getslice__'
p18
S"<method-wrapper '__getslice__' of exceptions.NameError object>"
p19
sS'__getitem__'
p20
S"<method-wrapper '__getitem__' of exceptions.NameError object>"
p21
sS'__setstate__'
p22
S'<built-in method __setstate__ of exceptions.NameError object>'
p23
sS'args'
p24
S'("name \'posts\' is not defined",)'
p25
sS'__reduce__'
p26
S'<built-in method __reduce__ of exceptions.NameError object>'
p27
sS'__str__'
p28
S"<method-wrapper '__str__' of exceptions.NameError object>"
p29
sS'__format__'
p30
S'<built-in method __format__ of exceptions.NameError object>'
p31
sS'__getattribute__'
p32
S"<method-wrapper '__getattribute__' of exceptions.NameError object>"
p33
sS'__class__'
p34
S"<type 'exceptions.NameError'>"
p35
sS'__unicode__'
p36
S'<built-in method __unicode__ of exceptions.NameError object>'
p37
sS'__delattr__'
p38
S"<method-wrapper '__delattr__' of exceptions.NameError object>"
p39
sS'__subclasshook__'
p40
S'<built-in method __subclasshook__ of type object>'
p41
sS'__repr__'
p42
S"<method-wrapper '__repr__' of exceptions.NameError object>"
p43
sS'__dict__'
p44
S'{}'
p45
sS'__sizeof__'
p46
S'<built-in method __sizeof__ of exceptions.NameError object>'
p47
sS'__doc__'
p48
S"'Name not found globally.'"
p49
sS'__init__'
p50
S"<method-wrapper '__init__' of exceptions.NameError object>"
p51
sS'__new__'
p52
S'<built-in method __new__ of type object>'
p53
ssS'evalue'
p54
S"name 'posts' is not defined"
p55
sS'request'
p56
cgluon.html
XML_unpickle
p57
(S's\x89\x85\x00\x00<div><table><tr><td style="font-weight:bold;vertical-align:top;">ajax</td><td style="vertical-align:top;">:</td><td><div>False</div></td></tr><tr><td style="font-weight:bold;vertical-align:top;">application</td><td style="vertical-align:top;">:</td><td><div>inCrowd</div></td></tr><tr><td style="font-weight:bold;vertical-align:top;">args</td><td style="vertical-align:top;">:</td><td><div><table></table></div></td></tr><tr><td style="font-weight:bold;vertical-align:top;">cid</td><td style="vertical-align:top;">:</td><td><div>None</div></td></tr><tr><td style="font-weight:bold;vertical-align:top;">client</td><td style="vertical-align:top;">:</td><td><div>127.0.0.1</div></td></tr><tr><td style="font-weight:bold;vertical-align:top;">controller</td><td style="vertical-align:top;">:</td><td><div>default</div></td></tr><tr><td style="font-weight:bold;vertical-align:top;">cookies</td><td style="vertical-align:top;">:</td><td><div><table><tr><td style="font-weight:bold;vertical-align:top;">session_id_admin</td><td style="vertical-align:top;">:</td><td><div>127.0.0.1-e3d797b9-6031-4fff-9705-f26c8ae08ef9<table><tr><td style="font-weight:bold;vertical-align:top;">comment</td><td style="vertical-align:top;">:</td><td><div></div></td></tr><tr><td style="font-weight:bold;vertical-align:top;">domain</td><td style="vertical-align:top;">:</td><td><div></div></td></tr><tr><td style="font-weight:bold;vertical-align:top;">expires</td><td style="vertical-align:top;">:</td><td><div></div></td></tr><tr><td style="font-weight:bold;vertical-align:top;">httponly</td><td style="vertical-align:top;">:</td><td><div></div></td></tr><tr><td style="font-weight:bold;vertical-align:top;">max-age</td><td style="vertical-align:top;">:</td><td><div></div></td></tr><tr><td style="font-weight:bold;vertical-align:top;">path</td><td style="vertical-align:top;">:</td><td><div></div></td></tr><tr><td style="font-weight:bold;vertical-align:top;">secure</td><td style="vertical-align:top;">:</td><td><div></div></td></tr><tr><td style="font-weight:bold;vertical-align:top;">version</td><td style="vertical-align:top;">:</td><td><div></div></td></tr></table></div></td></tr><tr><td style="font-weight:bold;vertical-align:top;">session_id_hw3</td><td style="vertical-align:top;">:</td><td><div>11:1913b513-ec16-49eb-981f-f557a4ae47d0<table><tr><td style="font-weight:bold;vertical-align:top;">comment</td><td style="vertical-align:top;">:</td><td><div></div></td></tr><tr><td style="font-weight:bold;vertical-align:top;">domain</td><td style="vertical-align:top;">:</td><td><div></div></td></tr><tr><td style="font-weight:bold;vertical-align:top;">expires</td><td style="vertical-align:top;">:</td><td><div></div></td></tr><tr><td style="font-weight:bold;vertical-align:top;">httponly</td><td style="vertical-align:top;">:</td><td><div></div></td></tr><tr><td style="font-weight:bold;vertical-align:top;">max-age</td><td style="vertical-align:top;">:</td><td><div></div></td></tr><tr><td style="font-weight:bold;vertical-align:top;">path</td><td style="vertical-align:top;">:</td><td><div></div></td></tr><tr><td style="font-weight:bold;vertical-align:top;">secure</td><td style="vertical-align:top;">:</td><td><div></div></td></tr><tr><td style="font-weight:bold;vertical-align:top;">version</td><td style="vertical-align:top;">:</td><td><div></div></td></tr></table></div></td></tr><tr><td style="font-weight:bold;vertical-align:top;">session_id_hw4</td><td style="vertical-align:top;">:</td><td><div>8:933dadf3-bede-4585-911f-a9ee86fb5a3a<table><tr><td style="font-weight:bold;vertical-align:top;">comment</td><td style="vertical-align:top;">:</td><td><div></div></td></tr><tr><td style="font-weight:bold;vertical-align:top;">domain</td><td style="vertical-align:top;">:</td><td><div></div></td></tr><tr><td style="font-weight:bold;vertical-align:top;">expires</td><td style="vertical-align:top;">:</td><td><div></div></td></tr><tr><td style="font-weight:bold;vertical-align:top;">httponly</td><td style="vertical-align:top;">:</td><td><div></div></td></tr><tr><td style="font-weight:bold;vertical-align:top;">max-age</td><td style="vertical-align:top;">:</td><td><div></div></td></tr><tr><td style="font-weight:bold;vertical-align:top;">path</td><td style="vertical-align:top;">:</td><td><div></div></td></tr><tr><td style="font-weight:bold;vertical-align:top;">secure</td><td style="vertical-align:top;">:</td><td><div></div></td></tr><tr><td style="font-weight:bold;vertical-align:top;">version</td><td style="vertical-align:top;">:</td><td><div></div></td></tr></table></div></td></tr><tr><td style="font-weight:bold;vertical-align:top;">session_id_incrowd</td><td style="vertical-align:top;">:</td><td><div>1:31bd250c-1c2e-48d1-a89e-668d07aba478<table><tr><td style="font-weight:bold;vertical-align:top;">comment</td><td style="vertical-align:top;">:</td><td><div></div></td></tr><tr><td style="font-weight:bold;vertical-align:top;">domain</td><td style="vertical-align:top;">:</td><td><div></div></td></tr><tr><td style="font-weight:bold;vertical-align:top;">expires</td><td style="vertical-align:top;">:</td><td><div></div></td></tr><tr><td style="font-weight:bold;vertical-align:top;">httponly</td><td style="vertical-align:top;">:</td><td><div></div></td></tr><tr><td style="font-weight:bold;vertical-align:top;">max-age</td><td style="vertical-align:top;">:</td><td><div></div></td></tr><tr><td style="font-weight:bold;vertical-align:top;">path</td><td style="vertical-align:top;">:</td><td><div></div></td></tr><tr><td style="font-weight:bold;vertical-align:top;">secure</td><td style="vertical-align:top;">:</td><td><div></div></td></tr><tr><td style="font-weight:bold;vertical-align:top;">version</td><td style="vertical-align:top;">:</td><td><div></div></td></tr></table></div></td></tr><tr><td style="font-weight:bold;vertical-align:top;">session_id_lect_10</td><td style="vertical-align:top;">:</td><td><div>3:1f325f47-9838-4e6b-a2a9-053447f934fe<table><tr><td style="font-weight:bold;vertical-align:top;">comment</td><td style="vertical-align:top;">:</td><td><div></div></td></tr><tr><td style="font-weight:bold;vertical-align:top;">domain</td><td style="vertical-align:top;">:</td><td><div></div></td></tr><tr><td style="font-weight:bold;vertical-align:top;">expires</td><td style="vertical-align:top;">:</td><td><div></div></td></tr><tr><td style="font-weight:bold;vertical-align:top;">httponly</td><td style="vertical-align:top;">:</td><td><div></div></td></tr><tr><td style="font-weight:bold;vertical-align:top;">max-age</td><td style="vertical-align:top;">:</td><td><div></div></td></tr><tr><td style="font-weight:bold;vertical-align:top;">path</td><td style="vertical-align:top;">:</td><td><div></div></td></tr><tr><td style="font-weight:bold;vertical-align:top;">secure</td><td style="vertical-align:top;">:</td><td><div></div></td></tr><tr><td style="font-weight:bold;vertical-align:top;">version</td><td style="vertical-align:top;">:</td><td><div></div></td></tr></table></div></td></tr><tr><td style="font-weight:bold;vertical-align:top;">session_id_rev2</td><td style="vertical-align:top;">:</td><td><div>2:2ab2838c-57c6-4bba-95da-4b86f2670749<table><tr><td style="font-weight:bold;vertical-align:top;">comment</td><td style="vertical-align:top;">:</td><td><div></div></td></tr><tr><td style="font-weight:bold;vertical-align:top;">domain</td><td style="vertical-align:top;">:</td><td><div></div></td></tr><tr><td style="font-weight:bold;vertical-align:top;">expires</td><td style="vertical-align:top;">:</td><td><div></div></td></tr><tr><td style="font-weight:bold;vertical-align:top;">httponly</td><td style="vertical-align:top;">:</td><td><div></div></td></tr><tr><td style="font-weight:bold;vertical-align:top;">max-age</td><td style="vertical-align:top;">:</td><td><div></div></td></tr><tr><td style="font-weight:bold;vertical-align:top;">path</td><td style="vertical-align:top;">:</td><td><div></div></td></tr><tr><td style="font-weight:bold;vertical-align:top;">secure</td><td style="vertical-align:top;">:</td><td><div></div></td></tr><tr><td style="font-weight:bold;vertical-align:top;">version</td><td style="vertical-align:top;">:</td><td><div></div></td></tr></table></div></td></tr><tr><td style="font-weight:bold;vertical-align:top;">session_id_rev3</td><td style="vertical-align:top;">:</td><td><div>2:ea856e9d-cff8-4ac3-a078-055b9ca5cf90<table><tr><td style="font-weight:bold;vertical-align:top;">comment</td><td style="vertical-align:top;">:</td><td><div></div></td></tr><tr><td style="font-weight:bold;vertical-align:top;">domain</td><td style="vertical-align:top;">:</td><td><div></div></td></tr><tr><td style="font-weight:bold;vertical-align:top;">expires</td><td style="vertical-align:top;">:</td><td><div></div></td></tr><tr><td style="font-weight:bold;vertical-align:top;">httponly</td><td style="vertical-align:top;">:</td><td><div></div></td></tr><tr><td style="font-weight:bold;vertical-align:top;">max-age</td><td style="vertical-align:top;">:</td><td><div></div></td></tr><tr><td style="font-weight:bold;vertical-align:top;">path</td><td style="vertical-align:top;">:</td><td><div></div></td></tr><tr><td style="font-weight:bold;vertical-align:top;">secure</td><td style="vertical-align:top;">:</td><td><div></div></td></tr><tr><td style="font-weight:bold;vertical-align:top;">version</td><td style="vertical-align:top;">:</td><td><div></div></td></tr></table></div></td></tr><tr><td style="font-weight:bold;vertical-align:top;">session_id_rev4</td><td style="vertical-align:top;">:</td><td><div>2:cc0770f8-1a9e-493e-86da-91007117ca2e<table><tr><td style="font-weight:bold;vertical-align:top;">comment</td><td style="vertical-align:top;">:</td><td><div></div></td></tr><tr><td style="font-weight:bold;vertical-align:top;">domain</td><td style="vertical-align:top;">:</td><td><div></div></td></tr><tr><td style="font-weight:bold;vertical-align:top;">expires</td><td style="vertical-align:top;">:</td><td><div></div></td></tr><tr><td style="font-weight:bold;vertical-align:top;">httponly</td><td style="vertical-align:top;">:</td><td><div></div></td></tr><tr><td style="font-weight:bold;vertical-align:top;">max-age</td><td style="vertical-align:top;">:</td><td><div></div></td></tr><tr><td style="font-weight:bold;vertical-align:top;">path</td><td style="vertical-align:top;">:</td><td><div></div></td></tr><tr><td style="font-weight:bold;vertical-align:top;">secure</td><td style="vertical-align:top;">:</td><td><div></div></td></tr><tr><td style="font-weight:bold;vertical-align:top;">version</td><td style="vertical-align:top;">:</td><td><div></div></td></tr></table></div></td></tr><tr><td style="font-weight:bold;vertical-align:top;">session_id_rev5</td><td style="vertical-align:top;">:</td><td><div>2:48008bae-db76-4af6-89ad-e59c9e445249<table><tr><td style="font-weight:bold;vertical-align:top;">comment</td><td style="vertical-align:top;">:</td><td><div></div></td></tr><tr><td style="font-weight:bold;vertical-align:top;">domain</td><td style="vertical-align:top;">:</td><td><div></div></td></tr><tr><td style="font-weight:bold;vertical-align:top;">expires</td><td style="vertical-align:top;">:</td><td><div></div></td></tr><tr><td style="font-weight:bold;vertical-align:top;">httponly</td><td style="vertical-align:top;">:</td><td><div></div></td></tr><tr><td style="font-weight:bold;vertical-align:top;">max-age</td><td style="vertical-align:top;">:</td><td><div></div></td></tr><tr><td style="font-weight:bold;vertical-align:top;">path</td><td style="vertical-align:top;">:</td><td><div></div></td></tr><tr><td style="font-weight:bold;vertical-align:top;">secure</td><td style="vertical-align:top;">:</td><td><div></div></td></tr><tr><td style="font-weight:bold;vertical-align:top;">version</td><td style="vertical-align:top;">:</td><td><div></div></td></tr></table></div></td></tr><tr><td style="font-weight:bold;vertical-align:top;">session_id_start</td><td style="vertical-align:top;">:</td><td><div>3:68f15c82-e5a8-4774-bced-d1bd52b6e64a<table><tr><td style="font-weight:bold;vertical-align:top;">comment</td><td style="vertical-align:top;">:</td><td><div></div></td></tr><tr><td style="font-weight:bold;vertical-align:top;">domain</td><td style="vertical-align:top;">:</td><td><div></div></td></tr><tr><td style="font-weight:bold;vertical-align:top;">expires</td><td style="vertical-align:top;">:</td><td><div></div></td></tr><tr><td style="font-weight:bold;vertical-align:top;">httponly</td><td style="vertical-align:top;">:</td><td><div></div></td></tr><tr><td style="font-weight:bold;vertical-align:top;">max-age</td><td style="vertical-align:top;">:</td><td><div></div></td></tr><tr><td style="font-weight:bold;vertical-align:top;">path</td><td style="vertical-align:top;">:</td><td><div></div></td></tr><tr><td style="font-weight:bold;vertical-align:top;">secure</td><td style="vertical-align:top;">:</td><td><div></div></td></tr><tr><td style="font-weight:bold;vertical-align:top;">version</td><td style="vertical-align:top;">:</td><td><div></div></td></tr></table></div></td></tr><tr><td style="font-weight:bold;vertical-align:top;">session_id_welcome</td><td style="vertical-align:top;">:</td><td><div>127.0.0.1-90a93832-4126-4e69-a99f-8ce653dd704b<table><tr><td style="font-weight:bold;vertical-align:top;">comment</td><td style="vertical-align:top;">:</td><td><div></div></td></tr><tr><td style="font-weight:bold;vertical-align:top;">domain</td><td style="vertical-align:top;">:</td><td><div></div></td></tr><tr><td style="font-weight:bold;vertical-align:top;">expires</td><td style="vertical-align:top;">:</td><td><div></div></td></tr><tr><td style="font-weight:bold;vertical-align:top;">httponly</td><td style="vertical-align:top;">:</td><td><div></div></td></tr><tr><td style="font-weight:bold;vertical-align:top;">max-age</td><td style="vertical-align:top;">:</td><td><div></div></td></tr><tr><td style="font-weight:bold;vertical-align:top;">path</td><td style="vertical-align:top;">:</td><td><div></div></td></tr><tr><td style="font-weight:bold;vertical-align:top;">secure</td><td style="vertical-align:top;">:</td><td><div></div></td></tr><tr><td style="font-weight:bold;vertical-align:top;">version</td><td style="vertical-align:top;">:</td><td><div></div></td></tr></table></div></td></tr></table></div></td></tr><tr><td style="font-weight:bold;vertical-align:top;">env</td><td style="vertical-align:top;">:</td><td><div><table><tr><td style="font-weight:bold;vertical-align:top;">HTTP_ACCEPT</td><td style="vertical-align:top;">:</td><td><div>text/html,application/xhtml+xml,application/xml;q=0.9,image/webp,*/*;q=0.8</div></td></tr><tr><td style="font-weight:bold;vertical-align:top;">HTTP_ACCEPT_ENCODING</td><td style="vertical-align:top;">:</td><td><div>gzip, deflate, sdch, br</div></td></tr><tr><td style="font-weight:bold;vertical-align:top;">HTTP_ACCEPT_LANGUAGE</td><td style="vertical-align:top;">:</td><td><div>en-US,en;q=0.8</div></td></tr><tr><td style="font-weight:bold;vertical-align:top;">HTTP_CACHE_CONTROL</td><td style="vertical-align:top;">:</td><td><div>max-age=0</div></td></tr><tr><td style="font-weight:bold;vertical-align:top;">HTTP_CONNECTION</td><td style="vertical-align:top;">:</td><td><div>keep-alive</div></td></tr><tr><td style="font-weight:bold;vertical-align:top;">HTTP_COOKIE</td><td style="vertical-align:top;">:</td><td><div>session_id_lect_10=&quot;3:1f325f47-9838-4e6b-a2a9-053447f934fe&quot;; session_id_start=&quot;3:68f15c82-e5a8-4774-bced-d1bd52b6e64a&quot;; session_id_welcome=127.0.0.1-90a93832-4126-4e69-a99f-8ce653dd704b; session_id_rev4=&quot;2:cc0770f8-1a9e-493e-86da-91007117ca2e&quot;; session_id_rev3=&quot;2:ea856e9d-cff8-4ac3-a078-055b9ca5cf90&quot;; session_id_rev2=&quot;2:2ab2838c-57c6-4bba-95da-4b86f2670749&quot;; session_id_hw3=&quot;11:1913b513-ec16-49eb-981f-f557a4ae47d0&quot;; session_id_rev5=&quot;2:48008bae-db76-4af6-89ad-e59c9e445249&quot;; session_id_hw4=&quot;8:933dadf3-bede-4585-911f-a9ee86fb5a3a&quot;; session_id_incrowd=&quot;1:31bd250c-1c2e-48d1-a89e-668d07aba478&quot;; session_id_admin=127.0.0.1-e3d797b9-6031-4fff-9705-f26c8ae08ef9</div></td></tr><tr><td style="font-weight:bold;vertical-align:top;">HTTP_HOST</td><td style="vertical-align:top;">:</td><td><div>127.0.0.1:8000</div></td></tr><tr><td style="font-weight:bold;vertical-align:top;">HTTP_UPGRADE_INSECURE_REQUESTS</td><td style="vertical-align:top;">:</td><td><div>1</div></td></tr><tr><td style="font-weight:bold;vertical-align:top;">HTTP_USER_AGENT</td><td style="vertical-align:top;">:</td><td><div>Mozilla/5.0 (Macintosh; Intel Mac OS X 10_12_1) AppleWebKit/537.36 (KHTML, like Gecko) Chrome/54.0.2840.98 Safari/537.36</div></td></tr><tr><td style="font-weight:bold;vertical-align:top;">PATH_INFO</td><td style="vertical-align:top;">:</td><td><div>/</div></td></tr><tr><td style="font-weight:bold;vertical-align:top;">QUERY_STRING</td><td style="vertical-align:top;">:</td><td><div></div></td></tr><tr><td style="font-weight:bold;vertical-align:top;">REMOTE_ADDR</td><td style="vertical-align:top;">:</td><td><div>127.0.0.1</div></td></tr><tr><td style="font-weight:bold;vertical-align:top;">REMOTE_PORT</td><td style="vertical-align:top;">:</td><td><div>53330</div></td></tr><tr><td style="font-weight:bold;vertical-align:top;">REQUEST_METHOD</td><td style="vertical-align:top;">:</td><td><div>GET</div></td></tr><tr><td style="font-weight:bold;vertical-align:top;">SCRIPT_NAME</td><td style="vertical-align:top;">:</td><td><div></div></td></tr><tr><td style="font-weight:bold;vertical-align:top;">SERVER_NAME</td><td style="vertical-align:top;">:</td><td><div>eduroam-169-233-203-83.ucsc.edu</div></td></tr><tr><td style="font-weight:bold;vertical-align:top;">SERVER_PORT</td><td style="vertical-align:top;">:</td><td><div>8000</div></td></tr><tr><td style="font-weight:bold;vertical-align:top;">SERVER_PROTOCOL</td><td style="vertical-align:top;">:</td><td><div>HTTP/1.1</div></td></tr><tr><td style="font-weight:bold;vertical-align:top;">SERVER_SOFTWARE</td><td style="vertical-align:top;">:</td><td><div>Rocket 1.2.6</div></td></tr><tr><td style="font-weight:bold;vertical-align:top;">app_folders</td><td style="vertical-align:top;">:</td><td><div>set([&#x27;/Users/leahlangford/Desktop/CMPS 183/web2py/applications/admin/&#x27;, &#x27;/Users/leahlangford/Desktop/CMPS 183/web2py/applications/inCrowd/&#x27;])</div></td></tr><tr><td style="font-weight:bold;vertical-align:top;">applications_parent</td><td style="vertical-align:top;">:</td><td><div>/Users/leahlangford/Desktop/CMPS 183/web2py</div></td></tr><tr><td style="font-weight:bold;vertical-align:top;">cmd_args</td><td style="vertical-align:top;">:</td><td><div><table></table></div></td></tr><tr><td style="font-weight:bold;vertical-align:top;">cmd_options</td><td style="vertical-align:top;">:</td><td><div>&lt;Values at 0x10e56cc68: {&#x27;verbose&#x27;: False, &#x27;ip&#x27;: &#x27;127.0.0.1&#x27;, &#x27;debuglevel&#x27;: 30, &#x27;with_scheduler&#x27;: False, &#x27;shutdown_timeout&#x27;: 5, &#x27;taskbar&#x27;: False, &#x27;with_coverage&#x27;: False, &#x27;pid_filename&#x27;: &#x27;httpserver.pid&#x27;, &#x27;maxthreads&#x27;: None, &#x27;softcron&#x27;: False, &#x27;server_name&#x27;: &#x27;eduroam-169-233-203-83.ucsc.edu&#x27;, &#x27;bpython&#x27;: False, &#x27;nogui&#x27;: False, &#x27;port&#x27;: 8000, &#x27;print_errors&#x27;: False, &#x27;extcron&#x27;: False, &#x27;runcron&#x27;: False, &#x27;run_system_tests&#x27;: False, &#x27;test&#x27;: None, &#x27;folder&#x27;: &#x27;/Users/leahlangford/Desktop/CMPS 183/web2py&#x27;, &#x27;config&#x27;: &#x27;&#x27;, &#x27;minthreads&#x27;: None, &#x27;shell&#x27;: None, &#x27;run&#x27;: &#x27;&#x27;, &#x27;log_filename&#x27;: &#x27;httpserver.log&#x27;, &#x27;profiler_dir&#x27;: None, &#x27;args&#x27;: [&#x27;&#x27;], &#x27;socket_timeout&#x27;: 5, &#x27;ssl_ca_certificate&#x27;: None, &#x27;scheduler&#x27;: None, &#x27;interfaces&#x27;: None, &#x27;ssl_private_key&#x27;: &#x27;&#x27;, &#x27;gae&#x27;: None, &#x27;password&#x27;: &#x27;******&#x27;, &#x27;request_queue_size&#x27;: 5, &#x27;ssl_certificate&#x27;: &#x27;&#x27;, &#x27;cronjob&#x27;: False, &#x27;numthreads&#x27;: None, &#x27;quiet&#x27;: False, &#x27;import_models&#x27;: False, &#x27;timeout&#x27;: 10, &#x27;plain&#x27;: False, &#x27;nobanner&#x27;: False}&gt;</div></td></tr><tr><td style="font-weight:bold;vertical-align:top;">db_sessions</td><td style="vertical-align:top;">:</td><td><div>set([&#x27;inCrowd&#x27;])</div></td></tr><tr><td style="font-weight:bold;vertical-align:top;">debugging</td><td style="vertical-align:top;">:</td><td><div>False</div></td></tr><tr><td style="font-weight:bold;vertical-align:top;">gluon_parent</td><td style="vertical-align:top;">:</td><td><div>/Users/leahlangford/Desktop/CMPS 183/web2py</div></td></tr><tr><td style="font-weight:bold;vertical-align:top;">http_accept</td><td style="vertical-align:top;">:</td><td><div>text/html,application/xhtml+xml,application/xml;q=0.9,image/webp,*/*;q=0.8</div></td></tr><tr><td style="font-weight:bold;vertical-align:top;">http_accept_encoding</td><td style="vertical-align:top;">:</td><td><div>gzip, deflate, sdch, br</div></td></tr><tr><td style="font-weight:bold;vertical-align:top;">http_accept_language</td><td style="vertical-align:top;">:</td><td><div>en-US,en;q=0.8</div></td></tr><tr><td style="font-weight:bold;vertical-align:top;">http_cache_control</td><td style="vertical-align:top;">:</td><td><div>max-age=0</div></td></tr><tr><td style="font-weight:bold;vertical-align:top;">http_connection</td><td style="vertical-align:top;">:</td><td><div>keep-alive</div></td></tr><tr><td style="font-weight:bold;vertical-align:top;">http_cookie</td><td style="vertical-align:top;">:</td><td><div>session_id_lect_10=&quot;3:1f325f47-9838-4e6b-a2a9-053447f934fe&quot;; session_id_start=&quot;3:68f15c82-e5a8-4774-bced-d1bd52b6e64a&quot;; session_id_welcome=127.0.0.1-90a93832-4126-4e69-a99f-8ce653dd704b; session_id_rev4=&quot;2:cc0770f8-1a9e-493e-86da-91007117ca2e&quot;; session_id_rev3=&quot;2:ea856e9d-cff8-4ac3-a078-055b9ca5cf90&quot;; session_id_rev2=&quot;2:2ab2838c-57c6-4bba-95da-4b86f2670749&quot;; session_id_hw3=&quot;11:1913b513-ec16-49eb-981f-f557a4ae47d0&quot;; session_id_rev5=&quot;2:48008bae-db76-4af6-89ad-e59c9e445249&quot;; session_id_hw4=&quot;8:933dadf3-bede-4585-911f-a9ee86fb5a3a&quot;; session_id_incrowd=&quot;1:31bd250c-1c2e-48d1-a89e-668d07aba478&quot;; session_id_admin=127.0.0.1-e3d797b9-6031-4fff-9705-f26c8ae08ef9</div></td></tr><tr><td style="font-weight:bold;vertical-align:top;">http_host</td><td style="vertical-align:top;">:</td><td><div>127.0.0.1:8000</div></td></tr><tr><td style="font-weight:bold;vertical-align:top;">http_upgrade_insecure_requests</td><td style="vertical-align:top;">:</td><td><div>1</div></td></tr><tr><td style="font-weight:bold;vertical-align:top;">http_user_agent</td><td style="vertical-align:top;">:</td><td><div>Mozilla/5.0 (Macintosh; Intel Mac OS X 10_12_1) AppleWebKit/537.36 (KHTML, like Gecko) Chrome/54.0.2840.98 Safari/537.36</div></td></tr><tr><td style="font-weight:bold;vertical-align:top;">is_jython</td><td style="vertical-align:top;">:</td><td><div>False</div></td></tr><tr><td style="font-weight:bold;vertical-align:top;">is_pypy</td><td style="vertical-align:top;">:</td><td><div>False</div></td></tr><tr><td style="font-weight:bold;vertical-align:top;">is_source</td><td style="vertical-align:top;">:</td><td><div>True</div></td></tr><tr><td style="font-weight:bold;vertical-align:top;">local_hosts</td><td style="vertical-align:top;">:</td><td><div><table><tr><td><div>169.233.203.83</div></td></tr><tr><td><div>::1</div></td></tr><tr><td><div>eduroam-169-233-203-83.ucsc.edu</div></td></tr><tr><td><div>::ffff:127.0.0.1</div></td></tr><tr><td><div>127.0.0.1</div></td></tr></table></div></td></tr><tr><td style="font-weight:bold;vertical-align:top;">path_info</td><td style="vertical-align:top;">:</td><td><div>/</div></td></tr><tr><td style="font-weight:bold;vertical-align:top;">query_string</td><td style="vertical-align:top;">:</td><td><div></div></td></tr><tr><td style="font-weight:bold;vertical-align:top;">remote_addr</td><td style="vertical-align:top;">:</td><td><div>127.0.0.1</div></td></tr><tr><td style="font-weight:bold;vertical-align:top;">remote_port</td><td style="vertical-align:top;">:</td><td><div>53330</div></td></tr><tr><td style="font-weight:bold;vertical-align:top;">request_method</td><td style="vertical-align:top;">:</td><td><div>GET</div></td></tr><tr><td style="font-weight:bold;vertical-align:top;">request_uri</td><td style="vertical-align:top;">:</td><td><div>/inCrowd/default/index</div></td></tr><tr><td style="font-weight:bold;vertical-align:top;">script_name</td><td style="vertical-align:top;">:</td><td><div></div></td></tr><tr><td style="font-weight:bold;vertical-align:top;">server_name</td><td style="vertical-align:top;">:</td><td><div>eduroam-169-233-203-83.ucsc.edu</div></td></tr><tr><td style="font-weight:bold;vertical-align:top;">server_port</td><td style="vertical-align:top;">:</td><td><div>8000</div></td></tr><tr><td style="font-weight:bold;vertical-align:top;">server_protocol</td><td style="vertical-align:top;">:</td><td><div>HTTP/1.1</div></td></tr><tr><td style="font-weight:bold;vertical-align:top;">server_software</td><td style="vertical-align:top;">:</td><td><div>Rocket 1.2.6</div></td></tr><tr><td style="font-weight:bold;vertical-align:top;">web2py_original_uri</td><td style="vertical-align:top;">:</td><td><div>/</div></td></tr><tr><td style="font-weight:bold;vertical-align:top;">web2py_path</td><td style="vertical-align:top;">:</td><td><div>/Users/leahlangford/Desktop/CMPS 183/web2py</div></td></tr><tr><td style="font-weight:bold;vertical-align:top;">web2py_version</td><td style="vertical-align:top;">:</td><td><div>2.14.6-stable+timestamp.2016.05.10.00.21.47</div></td></tr><tr><td style="font-weight:bold;vertical-align:top;">wsgi.errors</td><td style="vertical-align:top;">:</td><td><div>&lt;open file &#x27;&lt;stderr&gt;&#x27;, mode &#x27;w&#x27; at 0x10d53c1e0&gt;</div></td></tr><tr><td style="font-weight:bold;vertical-align:top;">wsgi.file_wrapper</td><td style="vertical-align:top;">:</td><td><div>&lt;class wsgiref.util.FileWrapper at 0x10e4c4d50&gt;</div></td></tr><tr><td style="font-weight:bold;vertical-align:top;">wsgi.input</td><td style="vertical-align:top;">:</td><td><div>&lt;socket._fileobject object at 0x114d2a550&gt;</div></td></tr><tr><td style="font-weight:bold;vertical-align:top;">wsgi.multiprocess</td><td style="vertical-align:top;">:</td><td><div>False</div></td></tr><tr><td style="font-weight:bold;vertical-align:top;">wsgi.multithread</td><td style="vertical-align:top;">:</td><td><div>True</div></td></tr><tr><td style="font-weight:bold;vertical-align:top;">wsgi.run_once</td><td style="vertical-align:top;">:</td><td><div>False</div></td></tr><tr><td style="font-weight:bold;vertical-align:top;">wsgi.url_scheme</td><td style="vertical-align:top;">:</td><td><div>http</div></td></tr><tr><td style="font-weight:bold;vertical-align:top;">wsgi.version</td><td style="vertical-align:top;">:</td><td><div><table><tr><td><div>1</div></td></tr><tr><td><div>0</div></td></tr></table></div></td></tr><tr><td style="font-weight:bold;vertical-align:top;">wsgi_errors</td><td style="vertical-align:top;">:</td><td><div>&lt;open file &#x27;&lt;stderr&gt;&#x27;, mode &#x27;w&#x27; at 0x10d53c1e0&gt;</div></td></tr><tr><td style="font-weight:bold;vertical-align:top;">wsgi_file_wrapper</td><td style="vertical-align:top;">:</td><td><div>&lt;class wsgiref.util.FileWrapper at 0x10e4c4d50&gt;</div></td></tr><tr><td style="font-weight:bold;vertical-align:top;">wsgi_input</td><td style="vertical-align:top;">:</td><td><div>&lt;socket._fileobject object at 0x114d2a550&gt;</div></td></tr><tr><td style="font-weight:bold;vertical-align:top;">wsgi_multiprocess</td><td style="vertical-align:top;">:</td><td><div>False</div></td></tr><tr><td style="font-weight:bold;vertical-align:top;">wsgi_multithread</td><td style="vertical-align:top;">:</td><td><div>True</div></td></tr><tr><td style="font-weight:bold;vertical-align:top;">wsgi_run_once</td><td style="vertical-align:top;">:</td><td><div>False</div></td></tr><tr><td style="font-weight:bold;vertical-align:top;">wsgi_url_scheme</td><td style="vertical-align:top;">:</td><td><div>http</div></td></tr><tr><td style="font-weight:bold;vertical-align:top;">wsgi_version</td><td style="vertical-align:top;">:</td><td><div><table><tr><td><div>1</div></td></tr><tr><td><div>0</div></td></tr></table></div></td></tr></table></div></td></tr><tr><td style="font-weight:bold;vertical-align:top;">extension</td><td style="vertical-align:top;">:</td><td><div>html</div></td></tr><tr><td style="font-weight:bold;vertical-align:top;">folder</td><td style="vertical-align:top;">:</td><td><div>/Users/leahlangford/Desktop/CMPS 183/web2py/applications/inCrowd/</div></td></tr><tr><td style="font-weight:bold;vertical-align:top;">function</td><td style="vertical-align:top;">:</td><td><div>index</div></td></tr><tr><td style="font-weight:bold;vertical-align:top;">global_settings</td><td style="vertical-align:top;">:</td><td><div><table><tr><td style="font-weight:bold;vertical-align:top;">app_folders</td><td style="vertical-align:top;">:</td><td><div>set([&#x27;/Users/leahlangford/Desktop/CMPS 183/web2py/applications/admin/&#x27;, &#x27;/Users/leahlangford/Desktop/CMPS 183/web2py/applications/inCrowd/&#x27;])</div></td></tr><tr><td style="font-weight:bold;vertical-align:top;">applications_parent</td><td style="vertical-align:top;">:</td><td><div>/Users/leahlangford/Desktop/CMPS 183/web2py</div></td></tr><tr><td style="font-weight:bold;vertical-align:top;">cmd_args</td><td style="vertical-align:top;">:</td><td><div><table></table></div></td></tr><tr><td style="font-weight:bold;vertical-align:top;">cmd_options</td><td style="vertical-align:top;">:</td><td><div>&lt;Values at 0x10e56cc68: {&#x27;verbose&#x27;: False, &#x27;ip&#x27;: &#x27;127.0.0.1&#x27;, &#x27;debuglevel&#x27;: 30, &#x27;with_scheduler&#x27;: False, &#x27;shutdown_timeout&#x27;: 5, &#x27;taskbar&#x27;: False, &#x27;with_coverage&#x27;: False, &#x27;pid_filename&#x27;: &#x27;httpserver.pid&#x27;, &#x27;maxthreads&#x27;: None, &#x27;softcron&#x27;: False, &#x27;server_name&#x27;: &#x27;eduroam-169-233-203-83.ucsc.edu&#x27;, &#x27;bpython&#x27;: False, &#x27;nogui&#x27;: False, &#x27;port&#x27;: 8000, &#x27;print_errors&#x27;: False, &#x27;extcron&#x27;: False, &#x27;runcron&#x27;: False, &#x27;run_system_tests&#x27;: False, &#x27;test&#x27;: None, &#x27;folder&#x27;: &#x27;/Users/leahlangford/Desktop/CMPS 183/web2py&#x27;, &#x27;config&#x27;: &#x27;&#x27;, &#x27;minthreads&#x27;: None, &#x27;shell&#x27;: None, &#x27;run&#x27;: &#x27;&#x27;, &#x27;log_filename&#x27;: &#x27;httpserver.log&#x27;, &#x27;profiler_dir&#x27;: None, &#x27;args&#x27;: [&#x27;&#x27;], &#x27;socket_timeout&#x27;: 5, &#x27;ssl_ca_certificate&#x27;: None, &#x27;scheduler&#x27;: None, &#x27;interfaces&#x27;: None, &#x27;ssl_private_key&#x27;: &#x27;&#x27;, &#x27;gae&#x27;: None, &#x27;password&#x27;: &#x27;******&#x27;, &#x27;request_queue_size&#x27;: 5, &#x27;ssl_certificate&#x27;: &#x27;&#x27;, &#x27;cronjob&#x27;: False, &#x27;numthreads&#x27;: None, &#x27;quiet&#x27;: False, &#x27;import_models&#x27;: False, &#x27;timeout&#x27;: 10, &#x27;plain&#x27;: False, &#x27;nobanner&#x27;: False}&gt;</div></td></tr><tr><td style="font-weight:bold;vertical-align:top;">db_sessions</td><td style="vertical-align:top;">:</td><td><div>set([&#x27;inCrowd&#x27;])</div></td></tr><tr><td style="font-weight:bold;vertical-align:top;">debugging</td><td style="vertical-align:top;">:</td><td><div>False</div></td></tr><tr><td style="font-weight:bold;vertical-align:top;">gluon_parent</td><td style="vertical-align:top;">:</td><td><div>/Users/leahlangford/Desktop/CMPS 183/web2py</div></td></tr><tr><td style="font-weight:bold;vertical-align:top;">is_jython</td><td style="vertical-align:top;">:</td><td><div>False</div></td></tr><tr><td style="font-weight:bold;vertical-align:top;">is_pypy</td><td style="vertical-align:top;">:</td><td><div>False</div></td></tr><tr><td style="font-weight:bold;vertical-align:top;">is_source</td><td style="vertical-align:top;">:</td><td><div>True</div></td></tr><tr><td style="font-weight:bold;vertical-align:top;">local_hosts</td><td style="vertical-align:top;">:</td><td><div><table><tr><td><div>169.233.203.83</div></td></tr><tr><td><div>::1</div></td></tr><tr><td><div>eduroam-169-233-203-83.ucsc.edu</div></td></tr><tr><td><div>::ffff:127.0.0.1</div></td></tr><tr><td><div>127.0.0.1</div></td></tr></table></div></td></tr><tr><td style="font-weight:bold;vertical-align:top;">web2py_version</td><td style="vertical-align:top;">:</td><td><div>2.14.6-stable+timestamp.2016.05.10.00.21.47</div></td></tr></table></div></td></tr><tr><td style="font-weight:bold;vertical-align:top;">is_https</td><td style="vertical-align:top;">:</td><td><div>False</div></td></tr><tr><td style="font-weight:bold;vertical-align:top;">is_local</td><td style="vertical-align:top;">:</td><td><div>True</div></td></tr><tr><td style="font-weight:bold;vertical-align:top;">is_restful</td><td style="vertical-align:top;">:</td><td><div>False</div></td></tr><tr><td style="font-weight:bold;vertical-align:top;">is_scheduler</td><td style="vertical-align:top;">:</td><td><div>False</div></td></tr><tr><td style="font-weight:bold;vertical-align:top;">is_shell</td><td style="vertical-align:top;">:</td><td><div>False</div></td></tr><tr><td style="font-weight:bold;vertical-align:top;">now</td><td style="vertical-align:top;">:</td><td><div>datetime.datetime(2016, 12, 1, 22, 19, 18, 909833)</div></td></tr><tr><td style="font-weight:bold;vertical-align:top;">url</td><td style="vertical-align:top;">:</td><td><div>/</div></td></tr><tr><td style="font-weight:bold;vertical-align:top;">utcnow</td><td style="vertical-align:top;">:</td><td><div>datetime.datetime(2016, 12, 2, 6, 19, 18, 909842)</div></td></tr><tr><td style="font-weight:bold;vertical-align:top;">wsgi</td><td style="vertical-align:top;">:</td><td><div>&lt;gluon.main.LazyWSGI object at 0x114cf04d0&gt;</div></td></tr></table></div>'
tRp58
sS'frames'
p59
(lp60
(dp61
S'file'
p62
S'/Users/leahlangford/Desktop/CMPS 183/web2py/gluon/restricted.py'
p63
sS'dump'
p64
(dp65
S'environment'
p66
S"{'A': <class 'gluon.html.A'>, 'ANY_OF': <class 'gluon.validators.ANY_OF'>, 'ASSIGNJS': <function ASSIGNJS>, 'AppConfig': <function AppConfig>, 'Auth': <class 'gluon.tools.Auth'>, 'B': <class 'gluon.html.B'>, 'BEAUTIFY': <class 'gluon.html.BEAUTIFY'>, 'BODY': <class 'gluon.html.BODY'>, 'BR': <class 'gluon.html.BR'>, 'BUTTON': <class 'gluon.html.BUTTON'>, ...}"
p67
sS'ccode'
p68
S'<code object <module> at 0x11505d6b0, file "/Use...ations/inCrowd/views/default/index.html", line 1>'
p69
ssS'lnum'
p70
I227
sS'lines'
p71
(dp72
I224
S'            ccode = code'
p73
sI225
S'        else:'
p74
sI226
S'            ccode = compile2(code, layer)'
p75
sI227
S'        exec ccode in environment'
p76
sI228
S'    except HTTP:'
p77
sI229
S'        raise'
p78
sI230
S'    except RestrictedError:'
p79
sI231
S'        # do not encapsulate (obfuscate) the original RestrictedError'
p80
sI222
S'    try:'
p81
sI223
S'        if isinstance(code, types.CodeType):'
p82
ssS'call'
p83
S'(code=\'response.write(\\\'<!DOCTYPE html>\\\\n<!--[if (gt IE ..."></script>\\\\n  </body>\\\\n</html>\\\\n\\\', escape=False)\', environment={\'A\': <class \'gluon.html.A\'>, \'ANY_OF\': <class \'gluon.validators.ANY_OF\'>, \'ASSIGNJS\': <function ASSIGNJS>, \'AppConfig\': <function AppConfig>, \'Auth\': <class \'gluon.tools.Auth\'>, \'B\': <class \'gluon.html.B\'>, \'BEAUTIFY\': <class \'gluon.html.BEAUTIFY\'>, \'BODY\': <class \'gluon.html.BODY\'>, \'BR\': <class \'gluon.html.BR\'>, \'BUTTON\': <class \'gluon.html.BUTTON\'>, ...}, layer=\'/Users/leahlangford/Desktop/CMPS 183/web2py/applications/inCrowd/views/default/index.html\')'
p84
sS'func'
p85
S'restricted'
p86
sa(dp87
g62
S'/Users/leahlangford/Desktop/CMPS 183/web2py/applications/inCrowd/views/default/index.html'
p88
sg64
(dp89
S'A'
S"<class 'gluon.html.A'>"
p90
sS'p'
S'undefined'
p91
sS'URL'
p92
S'<function URL>'
p93
sS'args'
p94
g91
sS'callback'
p95
g91
sS'_class'
p96
g91
ssg70
I153
sg71
(dp97
I160
S'    response.write(\'" class = "post_title">\\n                   <i class="fa fa-pencil-square-o" aria-hidden="true">View Internship</i>\\n            </a>\\n            <br>\\n            \\n\\n\\n\\n            \', escape=False)'
p98
sI161
S'    if auth.user_id and p.uploader == auth.user.email:'
p99
sI162
S'        response.write(\'\\n\\n               <a href="\', escape=False)'
p100
sI163
S"        response.write(URL('default', 'edit_internship', args=[p.id]))"
p101
sI144
S'    response.write(\'\\n\\n    <div class="post_list_header text-right">\\n        <a href="\', escape=False)'
p102
sI145
S"    response.write(URL('default', 'edit_internship'))"
p103
sI146
S'    response.write(\'" class="btn btn-warning">\\n            <i class="fa fa-plus"></i> Add Internship\\n        </a>\\n    </div>\\n\\n\', escape=False)'
p104
sI147
S'else:'
p105
sI148
S'    response.write(\'\\n\\n    <div class="post_list_header text-right">\\n        <a href="\', escape=False)'
p106
sI149
S"    response.write(URL('default', 'user', args=['login']))"
p107
sI150
S'    response.write(\'" class="btn btn-warning">Log In</a>\\n    </div>\\n\\n\\n\\n\', escape=False)'
p108
sI151
S'    pass'
p109
sI152
S'response.write(\'\\n    \\n    <div class="post_list" >\\n    <h1> Upcoming Internships </h1>\\n    \', escape=False)'
p110
sI153
S'for p in posts:'
p111
sI154
S'    response.write(\'\\n        <div class="post text-left" >\\n            <!-- Here goes the code to display an individual post. The code below is just a placeholder. -->\\n            <p>\', escape=False)'
p112
sI155
S'    response.write(p.title)'
p113
sI156
S"    response.write('</p>\\n            <p>', escape=False)"
p114
sI157
S'    response.write(p.organization)'
p115
sI158
S'    response.write(\'</p>\\n\\n            <a href="\', escape=False)'
p116
sI159
S"    response.write(URL('default', 'view_internship', args=[p.id]))"
p117
ssg83
S'()'
p118
sg85
S'<module>'
p119
sasS'pyver'
p120
S'Python 2.7.10: /System/Library/Frameworks/Python.framework/Versions/2.7/Resources/Python.app/Contents/MacOS/Python (prefix: /System/Library/Frameworks/Python.framework/Versions/2.7)'
p121
sS'session'
p122
g57
(S's\x1a\x00\x00\x00<div><table></table></div>'
tRp123
sS'etype'
p124
S"<type 'exceptions.NameError'>"
p125
sS'date'
p126
S'Thu Dec  1 22:19:19 2016'
p127
sS'response'
p128
g57
(S's1/\x00\x00<div><table><tr><td style="font-weight:bold;vertical-align:top;">body</td><td style="vertical-align:top;">:</td><td><div>&lt;cStringIO.StringO object at 0x114cfb458&gt;</div></td></tr><tr><td style="font-weight:bold;vertical-align:top;">cookies</td><td style="vertical-align:top;">:</td><td><div><table></table></div></td></tr><tr><td style="font-weight:bold;vertical-align:top;">delimiters</td><td style="vertical-align:top;">:</td><td><div><table><tr><td><div>{{</div></td></tr><tr><td><div>}}</div></td></tr></table></div></td></tr><tr><td style="font-weight:bold;vertical-align:top;">files</td><td style="vertical-align:top;">:</td><td><div><table><tr><td><div>/inCrowd/static/js/jquery.js</div></td></tr><tr><td><div>/inCrowd/static/css/calendar.css</div></td></tr><tr><td><div>/inCrowd/static/js/calendar.js</div></td></tr><tr><td><div>/inCrowd/static/js/web2py.js</div></td></tr></table></div></td></tr><tr><td style="font-weight:bold;vertical-align:top;">flash</td><td style="vertical-align:top;">:</td><td><div></div></td></tr><tr><td style="font-weight:bold;vertical-align:top;">form_label_separator</td><td style="vertical-align:top;">:</td><td><div></div></td></tr><tr><td style="font-weight:bold;vertical-align:top;">formstyle</td><td style="vertical-align:top;">:</td><td><div>bootstrap3_inline</div></td></tr><tr><td style="font-weight:bold;vertical-align:top;">generic_patterns</td><td style="vertical-align:top;">:</td><td><div><table><tr><td><div>*</div></td></tr></table></div></td></tr><tr><td style="font-weight:bold;vertical-align:top;">google_analytics_id</td><td style="vertical-align:top;">:</td><td><div>None</div></td></tr><tr><td style="font-weight:bold;vertical-align:top;">headers</td><td style="vertical-align:top;">:</td><td><div><table><tr><td style="font-weight:bold;vertical-align:top;">X-Powered-By</td><td style="vertical-align:top;">:</td><td><div>web2py</div></td></tr></table></div></td></tr><tr><td style="font-weight:bold;vertical-align:top;">logo</td><td style="vertical-align:top;">:</td><td><div><a class="navbar-brand" href="http://www.web2py.com/" id="web2py-logo"><b>inCrowd</b>&trade;&nbsp;</a></div></td></tr><tr><td style="font-weight:bold;vertical-align:top;">menu</td><td style="vertical-align:top;">:</td><td><div><table><tr><td><div><table><tr><td><div>Home</div></td></tr><tr><td><div>False</div></td></tr><tr><td><div>/</div></td></tr><tr><td><div><table></table></div></td></tr></table></div></td></tr><tr><td><div><table><tr><td><div>My Sites</div></td></tr><tr><td><div>False</div></td></tr><tr><td><div>/admin/site</div></td></tr></table></div></td></tr><tr><td><div><table><tr><td><div>This App</div></td></tr><tr><td><div>False</div></td></tr><tr><td><div>#</div></td></tr><tr><td><div><table><tr><td><div><table><tr><td><div>Design</div></td></tr><tr><td><div>False</div></td></tr><tr><td><div>/admin/design/inCrowd</div></td></tr></table></div></td></tr><tr><td><div><li class="divider"></li></div></td></tr><tr><td><div><table><tr><td><div>Controller</div></td></tr><tr><td><div>False</div></td></tr><tr><td><div>/admin/edit/inCrowd/controllers/default.py</div></td></tr></table></div></td></tr><tr><td><div><table><tr><td><div>View</div></td></tr><tr><td><div>False</div></td></tr><tr><td><div>/admin/edit/inCrowd/views/default/index.html</div></td></tr></table></div></td></tr><tr><td><div><table><tr><td><div>DB Model</div></td></tr><tr><td><div>False</div></td></tr><tr><td><div>/admin/edit/inCrowd/models/db.py</div></td></tr></table></div></td></tr><tr><td><div><table><tr><td><div>Menu Model</div></td></tr><tr><td><div>False</div></td></tr><tr><td><div>/admin/edit/inCrowd/models/menu.py</div></td></tr></table></div></td></tr><tr><td><div><table><tr><td><div>Config.ini</div></td></tr><tr><td><div>False</div></td></tr><tr><td><div>/admin/edit/inCrowd/private/appconfig.ini</div></td></tr></table></div></td></tr><tr><td><div><table><tr><td><div>Layout</div></td></tr><tr><td><div>False</div></td></tr><tr><td><div>/admin/edit/inCrowd/views/layout.html</div></td></tr></table></div></td></tr><tr><td><div><table><tr><td><div>Stylesheet</div></td></tr><tr><td><div>False</div></td></tr><tr><td><div>/admin/edit/inCrowd/static/css/web2py-bootstrap3.css</div></td></tr></table></div></td></tr><tr><td><div><table><tr><td><div>Database</div></td></tr><tr><td><div>False</div></td></tr><tr><td><div>/appadmin</div></td></tr></table></div></td></tr><tr><td><div><table><tr><td><div>Errors</div></td></tr><tr><td><div>False</div></td></tr><tr><td><div>/admin/errors/inCrowd</div></td></tr></table></div></td></tr><tr><td><div><table><tr><td><div>About</div></td></tr><tr><td><div>False</div></td></tr><tr><td><div>/admin/about/inCrowd</div></td></tr></table></div></td></tr></table></div></td></tr></table></div></td></tr><tr><td><div><table><tr><td><div>Documentation</div></td></tr><tr><td><div>False</div></td></tr><tr><td><div>#</div></td></tr><tr><td><div><table><tr><td><div><table><tr><td><div>Online book</div></td></tr><tr><td><div>False</div></td></tr><tr><td><div>http://www.web2py.com/book</div></td></tr></table></div></td></tr><tr><td><div><li class="divider"></li></div></td></tr><tr><td><div><table><tr><td><div>Preface</div></td></tr><tr><td><div>False</div></td></tr><tr><td><div>http://www.web2py.com/book/default/chapter/00</div></td></tr></table></div></td></tr><tr><td><div><table><tr><td><div>Introduction</div></td></tr><tr><td><div>False</div></td></tr><tr><td><div>http://www.web2py.com/book/default/chapter/01</div></td></tr></table></div></td></tr><tr><td><div><table><tr><td><div>Python</div></td></tr><tr><td><div>False</div></td></tr><tr><td><div>http://www.web2py.com/book/default/chapter/02</div></td></tr></table></div></td></tr><tr><td><div><table><tr><td><div>Overview</div></td></tr><tr><td><div>False</div></td></tr><tr><td><div>http://www.web2py.com/book/default/chapter/03</div></td></tr></table></div></td></tr><tr><td><div><table><tr><td><div>The Core</div></td></tr><tr><td><div>False</div></td></tr><tr><td><div>http://www.web2py.com/book/default/chapter/04</div></td></tr></table></div></td></tr><tr><td><div><table><tr><td><div>The Views</div></td></tr><tr><td><div>False</div></td></tr><tr><td><div>http://www.web2py.com/book/default/chapter/05</div></td></tr></table></div></td></tr><tr><td><div><table><tr><td><div>Database</div></td></tr><tr><td><div>False</div></td></tr><tr><td><div>http://www.web2py.com/book/default/chapter/06</div></td></tr></table></div></td></tr><tr><td><div><table><tr><td><div>Forms and Validators</div></td></tr><tr><td><div>False</div></td></tr><tr><td><div>http://www.web2py.com/book/default/chapter/07</div></td></tr></table></div></td></tr><tr><td><div><table><tr><td><div>Email and SMS</div></td></tr><tr><td><div>False</div></td></tr><tr><td><div>http://www.web2py.com/book/default/chapter/08</div></td></tr></table></div></td></tr><tr><td><div><table><tr><td><div>Access Control</div></td></tr><tr><td><div>False</div></td></tr><tr><td><div>http://www.web2py.com/book/default/chapter/09</div></td></tr></table></div></td></tr><tr><td><div><table><tr><td><div>Services</div></td></tr><tr><td><div>False</div></td></tr><tr><td><div>http://www.web2py.com/book/default/chapter/10</div></td></tr></table></div></td></tr><tr><td><div><table><tr><td><div>Ajax Recipes</div></td></tr><tr><td><div>False</div></td></tr><tr><td><div>http://www.web2py.com/book/default/chapter/11</div></td></tr></table></div></td></tr><tr><td><div><table><tr><td><div>Components and Plugins</div></td></tr><tr><td><div>False</div></td></tr><tr><td><div>http://www.web2py.com/book/default/chapter/12</div></td></tr></table></div></td></tr><tr><td><div><table><tr><td><div>Deployment Recipes</div></td></tr><tr><td><div>False</div></td></tr><tr><td><div>http://www.web2py.com/book/default/chapter/13</div></td></tr></table></div></td></tr><tr><td><div><table><tr><td><div>Other Recipes</div></td></tr><tr><td><div>False</div></td></tr><tr><td><div>http://www.web2py.com/book/default/chapter/14</div></td></tr></table></div></td></tr><tr><td><div><table><tr><td><div>Helping web2py</div></td></tr><tr><td><div>False</div></td></tr><tr><td><div>http://www.web2py.com/book/default/chapter/15</div></td></tr></table></div></td></tr><tr><td><div><table><tr><td><div>Buy web2py\'s book</div></td></tr><tr><td><div>False</div></td></tr><tr><td><div>http://stores.lulu.com/web2py</div></td></tr></table></div></td></tr></table></div></td></tr></table></div></td></tr></table></div></td></tr><tr><td style="font-weight:bold;vertical-align:top;">meta</td><td style="vertical-align:top;">:</td><td><div><table><tr><td style="font-weight:bold;vertical-align:top;">author</td><td style="vertical-align:top;">:</td><td><div>Your Name &lt;you@example.com&gt;</div></td></tr><tr><td style="font-weight:bold;vertical-align:top;">description</td><td style="vertical-align:top;">:</td><td><div>a cool new app</div></td></tr><tr><td style="font-weight:bold;vertical-align:top;">generator</td><td style="vertical-align:top;">:</td><td><div>Web2py Web Framework</div></td></tr><tr><td style="font-weight:bold;vertical-align:top;">keywords</td><td style="vertical-align:top;">:</td><td><div><table><tr><td><div>web2py</div></td></tr><tr><td><div>python</div></td></tr><tr><td><div>framework</div></td></tr></table></div></td></tr></table></div></td></tr><tr><td style="font-weight:bold;vertical-align:top;">models_to_run</td><td style="vertical-align:top;">:</td><td><div><table><tr><td><div>^\\w+\\.py$</div></td></tr><tr><td><div>^default/\\w+\\.py$</div></td></tr><tr><td><div>^default/index/\\w+\\.py$</div></td></tr></table></div></td></tr><tr><td style="font-weight:bold;vertical-align:top;">postprocessing</td><td style="vertical-align:top;">:</td><td><div><table></table></div></td></tr><tr><td style="font-weight:bold;vertical-align:top;">session_client</td><td style="vertical-align:top;">:</td><td><div>127.0.0.1</div></td></tr><tr><td style="font-weight:bold;vertical-align:top;">session_cookie_compression_level</td><td style="vertical-align:top;">:</td><td><div>None</div></td></tr><tr><td style="font-weight:bold;vertical-align:top;">session_cookie_expires</td><td style="vertical-align:top;">:</td><td><div>None</div></td></tr><tr><td style="font-weight:bold;vertical-align:top;">session_data_name</td><td style="vertical-align:top;">:</td><td><div>session_data_incrowd</div></td></tr><tr><td style="font-weight:bold;vertical-align:top;">session_db_table</td><td style="vertical-align:top;">:</td><td><div>&lt;Table web2py_session_inCrowd (id, locked, client_ip, created_datetime, modified_datetime, unique_key, session_data)&gt;</div></td></tr><tr><td style="font-weight:bold;vertical-align:top;">session_hash</td><td style="vertical-align:top;">:</td><td><div>c0762cbf4baf7f9af97c051e7fcb8083</div></td></tr><tr><td style="font-weight:bold;vertical-align:top;">session_id</td><td style="vertical-align:top;">:</td><td><div>None</div></td></tr><tr><td style="font-weight:bold;vertical-align:top;">session_id_name</td><td style="vertical-align:top;">:</td><td><div>session_id_incrowd</div></td></tr><tr><td style="font-weight:bold;vertical-align:top;">session_masterapp</td><td style="vertical-align:top;">:</td><td><div>inCrowd</div></td></tr><tr><td style="font-weight:bold;vertical-align:top;">session_new</td><td style="vertical-align:top;">:</td><td><div>True</div></td></tr><tr><td style="font-weight:bold;vertical-align:top;">session_storage_type</td><td style="vertical-align:top;">:</td><td><div>db</div></td></tr><tr><td style="font-weight:bold;vertical-align:top;">status</td><td style="vertical-align:top;">:</td><td><div>200</div></td></tr><tr><td style="font-weight:bold;vertical-align:top;">subtitle</td><td style="vertical-align:top;">:</td><td><div></div></td></tr><tr><td style="font-weight:bold;vertical-align:top;">title</td><td style="vertical-align:top;">:</td><td><div>Incrowd</div></td></tr><tr><td style="font-weight:bold;vertical-align:top;">view</td><td style="vertical-align:top;">:</td><td><div>default/index.html</div></td></tr></table></div>'
tRp129
sS'locals'
p130
(dp131
S'Service'
p132
S"<class 'gluon.tools.Service'>"
p133
sS'FORMAT'
p134
S"'%(asctime)s %(levelname)s %(process)s %(thread)s %(funcName)s():%(lineno)d %(message)s'"
p135
sS'OBJECT'
p136
S"<class 'gluon.html.OBJECT'>"
p137
sS'SQLDB'
p138
S"<class 'pydal.base.DAL'>"
p139
sg122
S'<Storage {}>'
p140
sS'LINK'
p141
S"<class 'gluon.html.LINK'>"
p142
sS'BR'
p143
S"<class 'gluon.html.BR'>"
p144
sS'local_import'
p145
S'<function <lambda>>'
p146
sS'OPTGROUP'
p147
S"<class 'gluon.html.OPTGROUP'>"
p148
sS'__package__'
p149
S'None'
p150
sS'PRE'
p151
S"<class 'gluon.html.PRE'>"
p152
sS'IS_INT_IN_RANGE'
p153
S"<class 'gluon.validators.IS_INT_IN_RANGE'>"
p154
sS'left_sidebar_enabled'
p155
S'False'
p156
sS'IS_LOWER'
p157
S"<class 'gluon.validators.IS_LOWER'>"
p158
sS'IS_STRONG'
p159
S"<class 'gluon.validators.IS_STRONG'>"
p160
sS'cache'
p161
S'<gluon.cache.Cache object>'
p162
sS'IS_IN_DB'
p163
S"<class 'gluon.validators.IS_IN_DB'>"
p164
sS'TAG'
p165
S'<gluon.html.__TAG__ object>'
p166
sS'SQLField'
p167
S"<class 'pydal.objects.Field'>"
p168
sS'mail'
p169
S'<gluon.tools.Mail object>'
p170
sS'logger'
p171
S'<logging.Logger object>'
p172
sS'BODY'
p173
S"<class 'gluon.html.BODY'>"
p174
sS'IS_DATE_IN_RANGE'
p175
S"<class 'gluon.validators.IS_DATE_IN_RANGE'>"
p176
sS'IFRAME'
p177
S"<class 'gluon.html.IFRAME'>"
p178
sS'URL'
p179
S'<function URL>'
p180
sS'__file__'
p181
S"'/Users/leahlangford/Desktop/CMPS 183/web2py/applications/inCrowd/views/default/index.html'"
p182
sS'db'
p183
S'<DAL uri="sqlite://storage.sqlite">'
p184
sS'auth'
p185
S'<gluon.tools.Auth object>'
p186
sS'P'
S"<class 'gluon.html.P'>"
p187
sS'TFOOT'
p188
S"<class 'gluon.html.TFOOT'>"
p189
sS'XHTML'
p190
S"<class 'gluon.html.XHTML'>"
p191
sS'datetime'
p192
S"<module 'datetime' from '/System/Library/Framewo...sions/2.7/lib/python2.7/lib-dynload/datetime.so'>"
p193
sS'day'
p194
S'0'
sS'ON'
p195
S'True'
p196
sS'OL'
p197
S"<class 'gluon.html.OL'>"
p198
sS'TEXTAREA'
p199
S"<class 'gluon.html.TEXTAREA'>"
p200
sS'MENU'
p201
S"<class 'gluon.html.MENU'>"
p202
sS'IS_IMAGE'
p203
S"<class 'gluon.validators.IS_IMAGE'>"
p204
sS'x'
S'6'
sS'EM'
p205
S"<class 'gluon.html.EM'>"
p206
sS'CODE'
p207
S"<class 'gluon.html.CODE'>"
p208
sS'HTTP'
p209
S"<class 'gluon.http.HTTP'>"
p210
sS'HR'
p211
S"<class 'gluon.html.HR'>"
p212
sS'IS_DATETIME'
p213
S"<class 'gluon.validators.IS_DATETIME'>"
p214
sS'STYLE'
p215
S"<class 'gluon.html.STYLE'>"
p216
sS'LABEL'
p217
S"<class 'gluon.html.LABEL'>"
p218
sS'CLEANUP'
p219
S"<class 'gluon.validators.CLEANUP'>"
p220
sS'A'
S"<class 'gluon.html.A'>"
p221
sS'plugins'
p222
S'<gluon.tools.PluginManager object>'
p223
sS'SELECT'
p224
S"<class 'gluon.html.SELECT'>"
p225
sS'CENTER'
p226
S"<class 'gluon.html.CENTER'>"
p227
sS'Auth'
p228
S"<class 'gluon.tools.Auth'>"
p229
sS'DEVELOPMENT_MENU'
p230
g196
sS'__builtins__'
p231
S"{'ArithmeticError': <type 'exceptions.ArithmeticError'>, 'AssertionError': <type 'exceptions.AssertionError'>, 'AttributeError': <type 'exceptions.AttributeError'>, 'BaseException': <type 'exceptions.BaseException'>, 'BufferError': <type 'exceptions.BufferError'>, 'BytesWarning': <type 'exceptions.BytesWarning'>, 'DeprecationWarning': <type 'exceptions.DeprecationWarning'>, 'EOFError': <type 'exceptions.EOFError'>, 'Ellipsis': Ellipsis, 'EnvironmentError': <type 'exceptions.EnvironmentError'>, ...}"
p232
sS'HTML'
p233
S"<class 'gluon.html.HTML'>"
p234
sS'SQLFORM'
p235
S"<class 'gluon.sqlhtml.SQLFORM'>"
p236
sS'LOAD'
p237
S'<function LOAD>'
p238
sS'redirect'
p239
S'<function redirect>'
p240
sS'FIELDSET'
p241
S"<class 'gluon.html.FIELDSET'>"
p242
sS'IS_EQUAL_TO'
p243
S"<class 'gluon.validators.IS_EQUAL_TO'>"
p244
sS'todayDay'
p245
S'1'
sS'embed64'
p246
S'<function embed64>'
p247
sS'IS_LIST_OF'
p248
S"<class 'gluon.validators.IS_LIST_OF'>"
p249
sS'__name__'
p250
S"'__restricted__'"
p251
sS'EMBED'
p252
S"<class 'gluon.html.EMBED'>"
p253
sS'_'
S'<function _>'
p254
sS'logging'
p255
S"<module 'logging' from '/System/Library/Framewor...Versions/2.7/lib/python2.7/logging/__init__.pyc'>"
p256
sS'myconf'
p257
S"{'forms': {'formstyle': 'bootstrap3_inline', 'se...': {'names': 'localhost:*, 127.0.0.1:*, *:*, *'}}"
p258
sS'H2'
p259
S"<class 'gluon.html.H2'>"
p260
sS'H3'
p261
S"<class 'gluon.html.H3'>"
p262
sS'AppConfig'
p263
S'<function AppConfig>'
p264
sS'H1'
p265
S"<class 'gluon.html.H1'>"
p266
sS'H6'
p267
S"<class 'gluon.html.H6'>"
p268
sS'H4'
p269
S"<class 'gluon.html.H4'>"
p270
sS'H5'
p271
S"<class 'gluon.html.H5'>"
p272
sS'UL'
p273
S"<class 'gluon.html.UL'>"
p274
sS'IS_UPPER'
p275
S"<class 'gluon.validators.IS_UPPER'>"
p276
sS'w'
S'4'
sS'xmlescape'
p277
S'<function xmlescape>'
p278
sS'IS_TIME'
p279
S"<class 'gluon.validators.IS_TIME'>"
p280
sS'OPTION'
p281
S"<class 'gluon.html.OPTION'>"
p282
sS'TITLE'
p283
S"<class 'gluon.html.TITLE'>"
p284
sS'CRYPT'
p285
S"<class 'gluon.validators.CRYPT'>"
p286
sS'IS_EMPTY_OR'
p287
S"<class 'gluon.validators.IS_EMPTY_OR'>"
p288
sS'MARKMIN'
p289
S"<class 'gluon.html.MARKMIN'>"
p290
sS'INPUT'
p291
S"<class 'gluon.html.INPUT'>"
p292
sS'todayYear'
p293
S'2016'
p294
sS'STRONG'
p295
S"<class 'gluon.html.STRONG'>"
p296
sS'COL'
p297
S"<class 'gluon.html.COL'>"
p298
sS'mc1'
p299
S"'col-md-9'"
p300
sS'mc0'
p301
S"'col-md-12'"
p302
sS'service'
p303
S'<gluon.tools.Service object>'
p304
sS'SCRIPT'
p305
S"<class 'gluon.html.SCRIPT'>"
p306
sS'TABLE'
p307
S"<class 'gluon.html.TABLE'>"
p308
sS'IS_IPV4'
p309
S"<class 'gluon.validators.IS_IPV4'>"
p310
sS'IS_LENGTH'
p311
S"<class 'gluon.validators.IS_LENGTH'>"
p312
sS'IS_IPV6'
p313
S"<class 'gluon.validators.IS_IPV6'>"
p314
sS'XML'
p315
S"<class 'gluon.html.XML'>"
p316
sS'B'
S"<class 'gluon.html.B'>"
p317
sS'IMG'
p318
S"<class 'gluon.html.IMG'>"
p319
sS'SQLTABLE'
p320
S"<class 'gluon.sqlhtml.SQLTABLE'>"
p321
sS'IS_MATCH'
p322
S"<class 'gluon.validators.IS_MATCH'>"
p323
sS'IS_ALPHANUMERIC'
p324
S"<class 'gluon.validators.IS_ALPHANUMERIC'>"
p325
sS'todayMonth'
p326
S"'December'"
p327
sS'IS_DATE'
p328
S"<class 'gluon.validators.IS_DATE'>"
p329
sS'SPAN'
p330
S"<class 'gluon.html.SPAN'>"
p331
sS'IS_JSON'
p332
S"<class 'gluon.validators.IS_JSON'>"
p333
sS'IS_IPADDRESS'
p334
S"<class 'gluon.validators.IS_IPADDRESS'>"
p335
sS'IS_SLUG'
p336
S"<class 'gluon.validators.IS_SLUG'>"
p337
sS'BEAUTIFY'
p338
S"<class 'gluon.html.BEAUTIFY'>"
p339
sS'META'
p340
S"<class 'gluon.html.META'>"
p341
sS'BUTTON'
p342
S"<class 'gluon.html.BUTTON'>"
p343
sS'cont'
p344
S"<Row {'dateDay': 6L, 'dateYear': None, 'dateEvent': 'Test', 'dateMonth': None, 'id': 5L}>"
p345
sS'IS_EMAIL'
p346
S"<class 'gluon.validators.IS_EMAIL'>"
p347
sS'middle_column'
p348
S"'col-md-12'"
p349
sS'IS_NOT_EMPTY'
p350
S"<class 'gluon.validators.IS_NOT_EMPTY'>"
p351
sS'IS_FLOAT_IN_RANGE'
p352
S"<class 'gluon.validators.IS_FLOAT_IN_RANGE'>"
p353
sS'TBODY'
p354
S"<class 'gluon.html.TBODY'>"
p355
sS'CAT'
p356
S"<class 'gluon.html.CAT'>"
p357
sS'Field'
p358
S"<class 'pydal.objects.Field'>"
p359
sS'mc2'
p360
S"'col-md-6'"
p361
sS'IS_LIST_OF_EMAILS'
p362
S"<class 'gluon.validators.IS_LIST_OF_EMAILS'>"
p363
sS'DIV'
p364
S"<class 'gluon.html.DIV'>"
p365
sS'LEGEND'
p366
S"<class 'gluon.html.LEGEND'>"
p367
sS'COLGROUP'
p368
S"<class 'gluon.html.COLGROUP'>"
p369
sS'DAL'
p370
S"<class 'pydal.base.DAL'>"
p371
sS'ASSIGNJS'
p372
S'<function ASSIGNJS>'
p373
sS'TR'
p374
S"<class 'gluon.html.TR'>"
p375
sS'LI'
p376
S"<class 'gluon.html.LI'>"
p377
sS'right_sidebar_enabled'
p378
g156
sS'TH'
p379
S"<class 'gluon.html.TH'>"
p380
sS'TD'
p381
S"<class 'gluon.html.TD'>"
p382
sS'PluginManager'
p383
S"<class 'gluon.tools.PluginManager'>"
p384
sS'IS_URL'
p385
S"<class 'gluon.validators.IS_URL'>"
p386
sS'dateContent'
p387
S'<Rows (5)>'
p388
sS'HEAD'
p389
S"<class 'gluon.html.HEAD'>"
p390
sS'IS_DATETIME_IN_RANGE'
p391
S"<class 'gluon.validators.IS_DATETIME_IN_RANGE'>"
p392
sS'FORM'
p393
S"<class 'gluon.html.FORM'>"
p394
sS'I'
S"<class 'gluon.html.I'>"
p395
sS'month'
p396
S'[[0, 0, 0, 1, 2, 3, 4], [5, 6, 7, 8, 9, 10, 11], [12, 13, 14, 15, 16, 17, 18], [19, 20, 21, 22, 23, 24, 25], [26, 27, 28, 29, 30, 31, 0]]'
p397
sS'sys'
p398
S"<module 'sys' (built-in)>"
p399
sS'IS_NOT_IN_DB'
p400
S"<class 'gluon.validators.IS_NOT_IN_DB'>"
p401
sg128
S"<Storage {'body': <cStringIO.StringO object at 0...y, session_data)>, 'view': 'default/index.html'}>"
p402
sS'THEAD'
p403
S"<class 'gluon.html.THEAD'>"
p404
sS'ANY_OF'
p405
S"<class 'gluon.validators.ANY_OF'>"
p406
sS'IS_NULL_OR'
p407
S"<class 'gluon.validators.IS_EMPTY_OR'>"
p408
sS'nWeeks'
p409
S'5'
sS'classtype'
p410
S"'previous'"
p411
sg56
S"<Storage {'_vars': <Storage {}>, 'function': 'in.../Desktop/CMPS 183/web2py/applications/inCrowd/'}>"
p412
sS'IS_EXPR'
p413
S"<class 'gluon.validators.IS_EXPR'>"
p414
sS'T'
S'<gluon.languages.translator object>'
p415
sS'IS_IN_SET'
p416
S"<class 'gluon.validators.IS_IN_SET'>"
p417
sS'week'
p418
S'[26, 27, 28, 29, 30, 31, 0]'
p419
sS'IS_UPLOAD_FILENAME'
p420
S"<class 'gluon.validators.IS_UPLOAD_FILENAME'>"
p421
sS'TT'
p422
S"<class 'gluon.html.TT'>"
p423
sS'IS_DECIMAL_IN_RANGE'
p424
S"<class 'gluon.validators.IS_DECIMAL_IN_RANGE'>"
p425
sssS'traceback'
p426
S'Traceback (most recent call last):\n  File "/Users/leahlangford/Desktop/CMPS 183/web2py/gluon/restricted.py", line 227, in restricted\n    exec ccode in environment\n  File "/Users/leahlangford/Desktop/CMPS 183/web2py/applications/inCrowd/views/default/index.html", line 153, in <module>\n    {{=A(\'Add to Favorites\',_class="fa fa-star", callback=URL(\'default\', \'add_fav\', args=[p.id]))}}\nNameError: name \'posts\' is not defined\n'
p427
s.